; Function Attrs: mustprogress uwtable
define void @_ZN2cv4gapi9boxFilterERKNS_4GMatEiRKNS_5Size_IiEERKNS_6Point_IiEEbiRKNS_7Scalar_IdEE(ptr dead_on_unwind noalias writable sret(%"class.cv::GMat") align 8 %0, ptr nocapture noundef nonnull readonly align 8 dereferenceable(16) %1, i32 noundef %2, ptr nocapture noundef nonnull readonly align 4 dereferenceable(8) %3, ptr nocapture noundef nonnull readonly align 4 dereferenceable(8) %4, i1 noundef zeroext %5, i32 noundef %6, ptr nocapture noundef nonnull readonly align 8 dereferenceable(32) %7) local_unnamed_addr #3 personality ptr @__gxx_personality_v0 {
  %9 = alloca %"class.cv::GMat", align 8
  %10 = alloca %"class.cv::Scalar_", align 8
  %11 = load ptr, ptr %1, align 8
  store ptr %11, ptr %9, align 8
  %12 = getelementptr inbounds i8, ptr %9, i64 8
  %13 = getelementptr inbounds i8, ptr %1, i64 8
  %14 = load ptr, ptr %13, align 8
  store ptr %14, ptr %12, align 8
  %.not.i.i.i.i = icmp eq ptr %14, null
  br i1 %.not.i.i.i.i, label %_ZN2cv4GMatC2ERKS0_.exit, label %15

15:                                               ; preds = %8
  %16 = getelementptr inbounds i8, ptr %14, i64 8
  %17 = load i8, ptr @__libc_single_threaded, align 1
  %.not.i.i.i.i.i = icmp eq i8 %17, 0
  br i1 %.not.i.i.i.i.i, label %21, label %18

18:                                               ; preds = %15
  %19 = load i32, ptr %16, align 4
  %20 = add nsw i32 %19, 1
  store i32 %20, ptr %16, align 4
  br label %_ZN2cv4GMatC2ERKS0_.exit

21:                                               ; preds = %15
  %22 = atomicrmw volatile add ptr %16, i32 1 acq_rel, align 4
  br label %_ZN2cv4GMatC2ERKS0_.exit

_ZN2cv4GMatC2ERKS0_.exit:                         ; preds = %8, %18, %21
  %.sroa.01.0.copyload = load i64, ptr %3, align 4
  %.sroa.0.0.copyload = load i64, ptr %4, align 4
  call void @llvm.memcpy.p0.p0.i64(ptr noundef nonnull align 8 dereferenceable(32) %10, ptr noundef nonnull align 8 dereferenceable(32) %7, i64 32, i1 false)
  invoke void @_ZN2cv11GKernelTypeINS_4gapi7imgproc10GBoxFilterESt8functionIFNS_4GMatES5_iNS_5Size_IiEENS_6Point_IiEEbiNS_7Scalar_IdEEEEE2onES5_iS7_S9_biSB_(ptr dead_on_unwind writable sret(%"class.cv::GMat") align 8 %0, ptr noundef nonnull %9, i32 noundef %2, i64 %.sroa.01.0.copyload, i64 %.sroa.0.0.copyload, i1 noundef zeroext %5, i32 noundef %6, ptr noundef nonnull %10)
          to label %23 unwind label %59

23:                                               ; preds = %_ZN2cv4GMatC2ERKS0_.exit
  %24 = load ptr, ptr %12, align 8
  %.not.i.i.i.i9 = icmp eq ptr %24, null
  br i1 %.not.i.i.i.i9, label %_ZN2cv4GMatD2Ev.exit, label %25

25:                                               ; preds = %23
  %26 = getelementptr inbounds i8, ptr %24, i64 8
  %27 = load atomic i64, ptr %26 acquire, align 8
  %28 = icmp eq i64 %27, 4294967297
  %29 = trunc i64 %27 to i32
  br i1 %28, label %30, label %35

30:                                               ; preds = %25
  store i32 0, ptr %26, align 8
  %31 = getelementptr inbounds i8, ptr %24, i64 12
  store i32 0, ptr %31, align 4
  %32 = load ptr, ptr %24, align 8
  %33 = getelementptr inbounds i8, ptr %32, i64 16
  %34 = load ptr, ptr %33, align 8
  call void %34(ptr noundef nonnull align 8 dereferenceable(16) %24) #18
  br label %_ZNSt16_Sp_counted_baseILN9__gnu_cxx12_Lock_policyE2EE24_M_release_last_use_coldEv.exit.sink.split.i.i.i.i.i

35:                                               ; preds = %25
  %36 = load i8, ptr @__libc_single_threaded, align 1
  %.not.i.i.i.i.i10 = icmp eq i8 %36, 0
  br i1 %.not.i.i.i.i.i10, label %39, label %37

37:                                               ; preds = %35
  %38 = add nsw i32 %29, -1
  store i32 %38, ptr %26, align 4
  br label %41

39:                                               ; preds = %35
  %40 = atomicrmw volatile add ptr %26, i32 -1 acq_rel, align 4
  br label %41

41:                                               ; preds = %39, %37
  %.0.i.i.i.i.i = phi i32 [ %29, %37 ], [ %40, %39 ]
  %42 = icmp eq i32 %.0.i.i.i.i.i, 1
  br i1 %42, label %43, label %_ZN2cv4GMatD2Ev.exit

43:                                               ; preds = %41
  %44 = load ptr, ptr %24, align 8
  %45 = getelementptr inbounds i8, ptr %44, i64 16
  %46 = load ptr, ptr %45, align 8
  call void %46(ptr noundef nonnull align 8 dereferenceable(16) %24) #18
  %47 = getelementptr inbounds i8, ptr %24, i64 12
  %48 = load i8, ptr @__libc_single_threaded, align 1
  %.not.i.i.i.i.i.i.i = icmp eq i8 %48, 0
  br i1 %.not.i.i.i.i.i.i.i, label %52, label %49

49:                                               ; preds = %43
  %50 = load i32, ptr %47, align 4
  %51 = add nsw i32 %50, -1
  store i32 %51, ptr %47, align 4
  br label %54

52:                                               ; preds = %43
  %53 = atomicrmw volatile add ptr %47, i32 -1 acq_rel, align 4
  br label %54

54:                                               ; preds = %52, %49
  %.0.i.i.i.i.i.i.i = phi i32 [ %50, %49 ], [ %53, %52 ]
  %55 = icmp eq i32 %.0.i.i.i.i.i.i.i, 1
  br i1 %55, label %_ZNSt16_Sp_counted_baseILN9__gnu_cxx12_Lock_policyE2EE24_M_release_last_use_coldEv.exit.sink.split.i.i.i.i.i, label %_ZN2cv4GMatD2Ev.exit

_ZNSt16_Sp_counted_baseILN9__gnu_cxx12_Lock_policyE2EE24_M_release_last_use_coldEv.exit.sink.split.i.i.i.i.i: ; preds = %54, %30
  %56 = load ptr, ptr %24, align 8
  %57 = getelementptr inbounds i8, ptr %56, i64 24
  %58 = load ptr, ptr %57, align 8
  call void %58(ptr noundef nonnull align 8 dereferenceable(16) %24) #18
  br label %_ZN2cv4GMatD2Ev.exit

_ZN2cv4GMatD2Ev.exit:                             ; preds = %23, %41, %54, %_ZNSt16_Sp_counted_baseILN9__gnu_cxx12_Lock_policyE2EE24_M_release_last_use_coldEv.exit.sink.split.i.i.i.i.i
  ret void

59:                                               ; preds = %_ZN2cv4GMatC2ERKS0_.exit
  %60 = landingpad { ptr, i32 }
          cleanup
  call void @_ZN2cv4GMatD2Ev(ptr noundef nonnull align 8 dereferenceable(16) %9) #18
  resume { ptr, i32 } %60
}